target datalayout = "e-m:e-p270:32:32-p271:32:32-p272:64:64-i64:64-i128:128-f80:128-n8:16:32:64-S128"
target triple = "x86_64-pc-linux-gnu"

%struct.gmx_multisim_t = type { i32, i32, ptr, ptr }
%struct.gmx_repl_ex = type { i32, i32, float, i32, %"struct.gmx::EnumerationArray", i8, ptr, ptr, ptr, i32, i32, i32, [2 x i32], ptr, ptr, ptr, ptr, ptr, ptr, ptr, ptr, ptr, ptr, ptr, ptr, ptr, ptr }
%"struct.gmx::EnumerationArray" = type { [4 x ptr] }

@.str.1 = private unnamed_addr constant [131 x i8] c"generated/home/dtcxzyw/WorkSpace/Projects/compilers/llvm-opt-benchmark/bench/gromacs/gromacs/src/gromacs/mdrun/replicaexchange.cpp\00", align 1
@.str.63 = private unnamed_addr constant [5 x i8] c"qall\00", align 1
@.str.64 = private unnamed_addr constant [11 x i8] c"re->q[ere]\00", align 1

; Function Attrs: inlinehint mustprogress uwtable
define internal void @_ZL14gmx_sfree_implIfEvPKcS1_iPT_(ptr noundef %0, ptr noundef %1, i32 noundef %2, ptr noundef %3) #7 {
  %5 = alloca ptr, align 8
  %6 = alloca ptr, align 8
  %7 = alloca i32, align 4
  %8 = alloca ptr, align 8
  store ptr %0, ptr %5, align 8, !tbaa !182
  store ptr %1, ptr %6, align 8, !tbaa !182
  store i32 %2, ptr %7, align 4, !tbaa !11
  store ptr %3, ptr %8, align 8, !tbaa !158
  %9 = load ptr, ptr %5, align 8, !tbaa !182
  %10 = load ptr, ptr %6, align 8, !tbaa !182
  %11 = load i32, ptr %7, align 4, !tbaa !11
  %12 = load ptr, ptr %8, align 8, !tbaa !158
  call void @_Z9save_freePKcS0_iPv(ptr noundef %9, ptr noundef %10, i32 noundef %11, ptr noundef %12)
  ret void
}

; Function Attrs: mustprogress nounwind uwtable
define linkonce_odr noundef nonnull align 8 dereferenceable(8) ptr @_ZN3gmx16EnumerationArrayI19ReplicaExchangeTypePfLS1_4EEixES1_(ptr noundef nonnull align 8 dereferenceable(32) %0, i32 noundef %1) #5 comdat align 2 {
  %3 = alloca ptr, align 8
  %4 = alloca i32, align 4
  store ptr %0, ptr %3, align 8, !tbaa !197
  store i32 %1, ptr %4, align 4, !tbaa !191
  %5 = load ptr, ptr %3, align 8
  %6 = getelementptr inbounds nuw %"struct.gmx::EnumerationArray", ptr %5, i32 0, i32 0
  %7 = load i32, ptr %4, align 4, !tbaa !191
  %8 = sext i32 %7 to i64
  %9 = getelementptr inbounds nuw [4 x ptr], ptr %6, i64 0, i64 %8
  ret ptr %9
}

; Function Attrs: inlinehint mustprogress nounwind uwtable
define linkonce_odr noundef float @_ZSt4fabsf(float noundef %0) #3 comdat {
  %2 = alloca float, align 4
  store float %0, ptr %2, align 4, !tbaa !144
  %3 = load float, ptr %2, align 4, !tbaa !144
  %4 = call float @llvm.fabs.f32(float %3)
  ret float %4
}

; Function Attrs: inlinehint mustprogress uwtable
define internal void @_ZL13gmx_snew_implIfEvPKcS1_iRPT_m(ptr noundef %0, ptr noundef %1, i32 noundef %2, ptr noundef nonnull align 8 dereferenceable(8) %3, i64 noundef %4) #7 {
  %6 = alloca ptr, align 8
  %7 = alloca ptr, align 8
  %8 = alloca i32, align 4
  %9 = alloca ptr, align 8
  %10 = alloca i64, align 8
  store ptr %0, ptr %6, align 8, !tbaa !182
  store ptr %1, ptr %7, align 8, !tbaa !182
  store i32 %2, ptr %8, align 4, !tbaa !11
  store ptr %3, ptr %9, align 8, !tbaa !194
  store i64 %4, ptr %10, align 8, !tbaa !188
  %11 = load ptr, ptr %6, align 8, !tbaa !182
  %12 = load ptr, ptr %7, align 8, !tbaa !182
  %13 = load i32, ptr %8, align 4, !tbaa !11
  %14 = load i64, ptr %10, align 8, !tbaa !188
  %15 = call noundef ptr @_Z11save_callocPKcS0_imm(ptr noundef %11, ptr noundef %12, i32 noundef %13, i64 noundef %14, i64 noundef 4)
  %16 = load ptr, ptr %9, align 8, !tbaa !194
  store ptr %15, ptr %16, align 8, !tbaa !158
  ret void
}

; Function Attrs: mustprogress uwtable
define internal noundef zeroext i1 @_ZL13repl_quantityPK14gmx_multisim_tP11gmx_repl_ex19ReplicaExchangeTypef(ptr noundef %0, ptr noundef %1, i32 noundef %2, float noundef %3) #0 {
  %5 = alloca ptr, align 8
  %6 = alloca ptr, align 8
  %7 = alloca i32, align 4
  %8 = alloca float, align 4
  %9 = alloca ptr, align 8
  %10 = alloca i8, align 1
  %11 = alloca i32, align 4
  store ptr %0, ptr %5, align 8, !tbaa !9
  store ptr %1, ptr %6, align 8, !tbaa !118
  store i32 %2, ptr %7, align 4, !tbaa !191
  store float %3, ptr %8, align 4, !tbaa !144
  call void @llvm.lifetime.start.p0(i64 8, ptr %9) #17
  call void @llvm.lifetime.start.p0(i64 1, ptr %10) #17
  call void @llvm.lifetime.start.p0(i64 4, ptr %11) #17
  %12 = load ptr, ptr %5, align 8, !tbaa !9
  %13 = getelementptr inbounds nuw %struct.gmx_multisim_t, ptr %12, i32 0, i32 0
  %14 = load i32, ptr %13, align 8, !tbaa !19
  %15 = sext i32 %14 to i64
  call void @_ZL13gmx_snew_implIfEvPKcS1_iRPT_m(ptr noundef @.str.63, ptr noundef @.str.1, i32 noundef 184, ptr noundef nonnull align 8 dereferenceable(8) %9, i64 noundef %15)
  %16 = load float, ptr %8, align 4, !tbaa !144
  %17 = load ptr, ptr %9, align 8, !tbaa !158
  %18 = load ptr, ptr %6, align 8, !tbaa !118
  %19 = getelementptr inbounds nuw %struct.gmx_repl_ex, ptr %18, i32 0, i32 0
  %20 = load i32, ptr %19, align 8, !tbaa !120
  %21 = sext i32 %20 to i64
  %22 = getelementptr inbounds float, ptr %17, i64 %21
  store float %16, ptr %22, align 4, !tbaa !144
  %23 = load ptr, ptr %5, align 8, !tbaa !9
  %24 = getelementptr inbounds nuw %struct.gmx_multisim_t, ptr %23, i32 0, i32 0
  %25 = load i32, ptr %24, align 8, !tbaa !19
  %26 = load ptr, ptr %9, align 8, !tbaa !158
  %27 = load ptr, ptr %5, align 8, !tbaa !9
  call void @_Z12gmx_sumf_simiPfPK14gmx_multisim_t(i32 noundef %25, ptr noundef %26, ptr noundef %27)
  store i8 0, ptr %10, align 1, !tbaa !17
  store i32 1, ptr %11, align 4, !tbaa !11
  br label %28

28:                                               ; preds = %49, %4
  %29 = load i32, ptr %11, align 4, !tbaa !11
  %30 = load ptr, ptr %5, align 8, !tbaa !9
  %31 = getelementptr inbounds nuw %struct.gmx_multisim_t, ptr %30, i32 0, i32 0
  %32 = load i32, ptr %31, align 8, !tbaa !19
  %33 = icmp slt i32 %29, %32
  br i1 %33, label %34, label %52

34:                                               ; preds = %28
  %35 = load ptr, ptr %9, align 8, !tbaa !158
  %36 = load i32, ptr %11, align 4, !tbaa !11
  %37 = sext i32 %36 to i64
  %38 = getelementptr inbounds float, ptr %35, i64 %37
  %39 = load float, ptr %38, align 4, !tbaa !144
  %40 = load ptr, ptr %9, align 8, !tbaa !158
  %41 = getelementptr inbounds float, ptr %40, i64 0
  %42 = load float, ptr %41, align 4, !tbaa !144
  %43 = fsub float %39, %42
  %44 = call noundef float @_ZSt4fabsf(float noundef %43)
  %45 = fpext float %44 to double
  %46 = fcmp ogt double %45, 1.000000e-05
  br i1 %46, label %47, label %48

47:                                               ; preds = %34
  store i8 1, ptr %10, align 1, !tbaa !17
  br label %48

48:                                               ; preds = %47, %34
  br label %49

49:                                               ; preds = %48
  %50 = load i32, ptr %11, align 4, !tbaa !11
  %51 = add nsw i32 %50, 1
  store i32 %51, ptr %11, align 4, !tbaa !11
  br label %28, !llvm.loop !192

52:                                               ; preds = %28
  %53 = load i8, ptr %10, align 1, !tbaa !17, !range !149, !noundef !150
  %54 = trunc i8 %53 to i1
  br i1 %54, label %55, label %91

55:                                               ; preds = %52
  %56 = load i32, ptr %7, align 4, !tbaa !191
  %57 = load ptr, ptr %6, align 8, !tbaa !118
  %58 = getelementptr inbounds nuw %struct.gmx_repl_ex, ptr %57, i32 0, i32 3
  store i32 %56, ptr %58, align 4, !tbaa !147
  %59 = load ptr, ptr %6, align 8, !tbaa !118
  %60 = getelementptr inbounds nuw %struct.gmx_repl_ex, ptr %59, i32 0, i32 4
  %61 = load i32, ptr %7, align 4, !tbaa !191
  %62 = call noundef nonnull align 8 dereferenceable(8) ptr @_ZN3gmx16EnumerationArrayI19ReplicaExchangeTypePfLS1_4EEixES1_(ptr noundef nonnull align 8 dereferenceable(32) %60, i32 noundef %61)
  %63 = load ptr, ptr %6, align 8, !tbaa !118
  %64 = getelementptr inbounds nuw %struct.gmx_repl_ex, ptr %63, i32 0, i32 1
  %65 = load i32, ptr %64, align 4, !tbaa !126
  %66 = sext i32 %65 to i64
  call void @_ZL13gmx_snew_implIfEvPKcS1_iRPT_m(ptr noundef @.str.64, ptr noundef @.str.1, i32 noundef 202, ptr noundef nonnull align 8 dereferenceable(8) %62, i64 noundef %66)
  store i32 0, ptr %11, align 4, !tbaa !11
  br label %67

67:                                               ; preds = %87, %55
  %68 = load i32, ptr %11, align 4, !tbaa !11
  %69 = load ptr, ptr %5, align 8, !tbaa !9
  %70 = getelementptr inbounds nuw %struct.gmx_multisim_t, ptr %69, i32 0, i32 0
  %71 = load i32, ptr %70, align 8, !tbaa !19
  %72 = icmp slt i32 %68, %71
  br i1 %72, label %73, label %90

73:                                               ; preds = %67
  %74 = load ptr, ptr %9, align 8, !tbaa !158
  %75 = load i32, ptr %11, align 4, !tbaa !11
  %76 = sext i32 %75 to i64
  %77 = getelementptr inbounds float, ptr %74, i64 %76
  %78 = load float, ptr %77, align 4, !tbaa !144
  %79 = load ptr, ptr %6, align 8, !tbaa !118
  %80 = getelementptr inbounds nuw %struct.gmx_repl_ex, ptr %79, i32 0, i32 4
  %81 = load i32, ptr %7, align 4, !tbaa !191
  %82 = call noundef nonnull align 8 dereferenceable(8) ptr @_ZN3gmx16EnumerationArrayI19ReplicaExchangeTypePfLS1_4EEixES1_(ptr noundef nonnull align 8 dereferenceable(32) %80, i32 noundef %81)
  %83 = load ptr, ptr %82, align 8, !tbaa !158
  %84 = load i32, ptr %11, align 4, !tbaa !11
  %85 = sext i32 %84 to i64
  %86 = getelementptr inbounds float, ptr %83, i64 %85
  store float %78, ptr %86, align 4, !tbaa !144
  br label %87

87:                                               ; preds = %73
  %88 = load i32, ptr %11, align 4, !tbaa !11
  %89 = add nsw i32 %88, 1
  store i32 %89, ptr %11, align 4, !tbaa !11
  br label %67, !llvm.loop !193

90:                                               ; preds = %67
  br label %91

91:                                               ; preds = %90, %52
  %92 = load ptr, ptr %9, align 8, !tbaa !158
  call void @_ZL14gmx_sfree_implIfEvPKcS1_iPT_(ptr noundef @.str.63, ptr noundef @.str.1, i32 noundef 208, ptr noundef %92)
  %93 = load i8, ptr %10, align 1, !tbaa !17, !range !149, !noundef !150
  %94 = trunc i8 %93 to i1
  call void @llvm.lifetime.end.p0(i64 4, ptr %11) #17
  call void @llvm.lifetime.end.p0(i64 1, ptr %10) #17
  call void @llvm.lifetime.end.p0(i64 8, ptr %9) #17
  ret i1 %94
}