; Function Attrs: mustprogress uwtable
define internal fastcc noundef zeroext i1 @_ZL13repl_quantityPK14gmx_multisim_tP11gmx_repl_ex19ReplicaExchangeTypef(ptr noundef %0, ptr noundef captures(none) %1, i32 noundef range(i32 0, 2) %2, float noundef %3) unnamed_addr #0 {
  %5 = load i32, ptr %0, align 8, !tbaa !4
  %6 = sext i32 %5 to i64
  %7 = tail call noundef ptr @_Z11save_callocPKcS0_imm(ptr noundef nonnull @.str.63, ptr noundef nonnull @.str.1, i32 noundef 184, i64 noundef range(i64 -2147483648, 2147483648) %6, i64 noundef 4)
  %8 = load i32, ptr %1, align 8, !tbaa !108
  %9 = sext i32 %8 to i64
  %10 = getelementptr inbounds float, ptr %7, i64 %9
  store float %3, ptr %10, align 4, !tbaa !133
  %11 = load i32, ptr %0, align 8, !tbaa !4
  tail call void @_Z12gmx_sumf_simiPfPK14gmx_multisim_t(i32 noundef %11, ptr noundef %7, ptr noundef nonnull %0)
  %12 = load i32, ptr %0, align 8, !tbaa !4
  %13 = icmp sgt i32 %12, 1
  br i1 %13, label %.lr.ph, label %.loopexit

.lr.ph:                                           ; preds = %4
  %14 = load float, ptr %7, align 4, !tbaa !133
  %wide.trip.count = zext nneg i32 %12 to i64
  br label %15

15:                                               ; preds = %.lr.ph, %15
  %indvars.iv = phi i64 [ 1, %.lr.ph ], [ %indvars.iv.next, %15 ]
  %.02227 = phi i1 [ false, %.lr.ph ], [ %.123, %15 ]
  %16 = getelementptr inbounds nuw float, ptr %7, i64 %indvars.iv
  %17 = load float, ptr %16, align 4, !tbaa !133
  %18 = fsub float %17, %14
  %19 = tail call noundef float @llvm.fabs.f32(float %18)
  %20 = fpext float %19 to double
  %21 = fcmp ogt double %20, 1.000000e-05
  %.123 = select i1 %21, i1 true, i1 %.02227
  %indvars.iv.next = add nuw nsw i64 %indvars.iv, 1
  %exitcond.not = icmp eq i64 %indvars.iv.next, %wide.trip.count
  br i1 %exitcond.not, label %._crit_edge, label %15, !llvm.loop !186

._crit_edge:                                      ; preds = %15
  br i1 %.123, label %22, label %.loopexit

22:                                               ; preds = %._crit_edge
  %23 = getelementptr inbounds nuw i8, ptr %1, i64 12
  store i32 %2, ptr %23, align 4, !tbaa !138
  %24 = getelementptr inbounds nuw i8, ptr %1, i64 16
  %25 = zext nneg i32 %2 to i64
  %26 = getelementptr inbounds nuw [4 x ptr], ptr %24, i64 0, i64 %25
  %27 = getelementptr inbounds nuw i8, ptr %1, i64 4
  %28 = load i32, ptr %27, align 4, !tbaa !114
  %29 = sext i32 %28 to i64
  %30 = tail call noundef ptr @_Z11save_callocPKcS0_imm(ptr noundef nonnull @.str.64, ptr noundef nonnull @.str.1, i32 noundef 202, i64 noundef range(i64 -2147483648, 2147483648) %29, i64 noundef 4)
  store ptr %30, ptr %26, align 8, !tbaa !144
  %31 = load i32, ptr %0, align 8, !tbaa !4
  %32 = icmp sgt i32 %31, 0
  br i1 %32, label %.lr.ph31.preheader, label %.loopexit

.lr.ph31.preheader:                               ; preds = %22
  %wide.trip.count35 = zext nneg i32 %31 to i64
  br label %.lr.ph31

.lr.ph31:                                         ; preds = %.lr.ph31.preheader, %.lr.ph31
  %indvars.iv32 = phi i64 [ 0, %.lr.ph31.preheader ], [ %indvars.iv.next33, %.lr.ph31 ]
  %33 = getelementptr inbounds nuw float, ptr %7, i64 %indvars.iv32
  %34 = load float, ptr %33, align 4, !tbaa !133
  %35 = getelementptr inbounds nuw float, ptr %30, i64 %indvars.iv32
  store float %34, ptr %35, align 4, !tbaa !133
  %indvars.iv.next33 = add nuw nsw i64 %indvars.iv32, 1
  %exitcond36.not = icmp eq i64 %indvars.iv.next33, %wide.trip.count35
  br i1 %exitcond36.not, label %.loopexit, label %.lr.ph31, !llvm.loop !187

.loopexit:                                        ; preds = %.lr.ph31, %4, %22, %._crit_edge
  %.022.lcssa38 = phi i1 [ true, %22 ], [ false, %._crit_edge ], [ false, %4 ], [ true, %.lr.ph31 ]
  tail call void @_Z9save_freePKcS0_iPv(ptr noundef nonnull @.str.63, ptr noundef nonnull @.str.1, i32 noundef 208, ptr noundef nonnull %7)
  ret i1 %.022.lcssa38
}